; Function Attrs: mustprogress nofree norecurse nounwind memory(argmem: readwrite, inaccessiblemem: readwrite) uwtable
define dso_local void @_ZN4base13HistogramBase10ClearFlagsEi(ptr noundef nonnull align 8 dereferenceable(44) %this, i32 noundef %flags) local_unnamed_addr #7 align 2 personality ptr @__gxx_personality_v0 {
entry:
  %flags_ = getelementptr inbounds i8, ptr %this, i64 40
  %0 = load atomic volatile i32, ptr %flags_ monotonic, align 8
  %not = xor i32 %flags, -1
  %and = and i32 %0, %not
  store atomic volatile i32 %and, ptr %flags_ monotonic, align 8
  ret void
}